	.file	"test.cpp"
	.text
	.local	_ZStL8__ioinit
	.comm	_ZStL8__ioinit,1,1
	.globl	main
	.type	main, @function
main:
.LFB1731:
	.cfi_startproc
	endbr64
	pushq	%rbp
	.cfi_def_cfa_offset 16
	.cfi_offset 6, -16
	movq	%rsp, %rbp
	.cfi_def_cfa_register 6
	subq	$80, %rsp
	movq	%fs:40, %rax
	movq	%rax, -8(%rbp)
	xorl	%eax, %eax
	movq	$0, -64(%rbp)
	movq	$0, -56(%rbp)
	movq	$0, -48(%rbp)
	movq	$0, -40(%rbp)
	movq	$0, -32(%rbp)
	movq	$0, -24(%rbp)
	movl	$1, -64(%rbp)
	movl	$2, -60(%rbp)
	movl	$1, -48(%rbp)
	movl	$2, -44(%rbp)
	movl	$3, -40(%rbp)
	movl	$1, -32(%rbp)
	movl	$2, -28(%rbp)
	movl	$3, -24(%rbp)
	movl	$4, -20(%rbp)
	movl	$0, -68(%rbp)
	jmp	.L2
.L3:
	movl	-68(%rbp), %eax
	movslq	%eax, %rdx
	movq	%rdx, %rax
	salq	$2, %rax
	addq	%rdx, %rax
	salq	$2, %rax
	addq	%rbp, %rax
	subq	$64, %rax
	movl	(%rax), %eax
	movl	%eax, %esi
	leaq	_ZSt4cout(%rip), %rax
	movq	%rax, %rdi
	call	_ZNSolsEi@PLT
	movq	_ZSt4endlIcSt11char_traitsIcEERSt13basic_ostreamIT_T0_ES6_@GOTPCREL(%rip), %rdx
	movq	%rdx, %rsi
	movq	%rax, %rdi
	call	_ZNSolsEPFRSoS_E@PLT
	addl	$1, -68(%rbp)
.L2:
	cmpl	$9, -68(%rbp)
	jle	.L3
	movl	$0, %eax
	movq	-8(%rbp), %rdx
	subq	%fs:40, %rdx
	je	.L5
	call	__stack_chk_fail@PLT
.L5:
	leave
	.cfi_def_cfa 7, 8
	ret
	.cfi_endproc
.LFE1731:
	.size	main, .-main
	.type	_Z41__static_initialization_and_destruction_0ii, @function
_Z41__static_initialization_and_destruction_0ii:
.LFB2231:
	.cfi_startproc
	endbr64
	pushq	%rbp
	.cfi_def_cfa_offset 16
	.cfi_offset 6, -16
	movq	%rsp, %rbp
	.cfi_def_cfa_register 6
	subq	$16, %rsp
	movl	%edi, -4(%rbp)
	movl	%esi, -8(%rbp)
	cmpl	$1, -4(%rbp)
	jne	.L8
	cmpl	$65535, -8(%rbp)
	jne	.L8
	leaq	_ZStL8__ioinit(%rip), %rax
	movq	%rax, %rdi
	call	_ZNSt8ios_base4InitC1Ev@PLT
	leaq	__dso_handle(%rip), %rax
	movq	%rax, %rdx
	leaq	_ZStL8__ioinit(%rip), %rax
	movq	%rax, %rsi
	movq	_ZNSt8ios_base4InitD1Ev@GOTPCREL(%rip), %rax
	movq	%rax, %rdi
	call	__cxa_atexit@PLT
.L8:
	nop
	leave
	.cfi_def_cfa 7, 8
	ret
	.cfi_endproc
.LFE2231:
	.size	_Z41__static_initialization_and_destruction_0ii, .-_Z41__static_initialization_and_destruction_0ii
	.type	_GLOBAL__sub_I_main, @function
_GLOBAL__sub_I_main:
.LFB2232:
	.cfi_startproc
	endbr64
	pushq	%rbp
	.cfi_def_cfa_offset 16
	.cfi_offset 6, -16
	movq	%rsp, %rbp
	.cfi_def_cfa_register 6
	movl	$65535, %esi
	movl	$1, %edi
	call	_Z41__static_initialization_and_destruction_0ii
	popq	%rbp
	.cfi_def_cfa 7, 8
	ret
	.cfi_endproc
.LFE2232:
	.size	_GLOBAL__sub_I_main, .-_GLOBAL__sub_I_main
	.section	.init_array,"aw"
	.align 8
	.quad	_GLOBAL__sub_I_main
	.hidden	__dso_handle
	.ident	"GCC: (Ubuntu 11.3.0-1ubuntu1~22.04.1) 11.3.0"
	.section	.note.GNU-stack,"",@progbits
	.section	.note.gnu.property,"a"
	.align 8
	.long	1f - 0f
	.long	4f - 1f
	.long	5
0:
	.string	"GNU"
1:
	.align 8
	.long	0xc0000002
	.long	3f - 2f
2:
	.long	0x3
3:
	.align 8
4:
